(dp0
S'val_acc'
p1
cnumpy.core.multiarray
scalar
p2
(cnumpy
dtype
p3
(S'f4'
p4
I0
I1
tp5
Rp6
(I3
S'<'
p7
NNNI-1
I-1
I0
tp8
bS'~\\~?'
p9
tp10
Rp11
sS'val_loss'
p12
g2
(g3
(S'f8'
p13
I0
I1
tp14
Rp15
(I3
S'<'
p16
NNNI-1
I-1
I0
tp17
bS'\x96\xdb\xe5\x90\x1cqP@'
p18
tp19
Rp20
s.