(dp0
S'loss'
p1
(lp2
cnumpy.core.multiarray
scalar
p3
(cnumpy
dtype
p4
(S'f8'
p5
I0
I1
tp6
Rp7
(I3
S'<'
p8
NNNI-1
I-1
I0
tp9
bS'?\x0f@?_\xbfJ@'
p10
tp11
Rp12
ag3
(g7
S'7\x9ft\x8crC/@'
p13
tp14
Rp15
ag3
(g7
S'k\xd7\x93\x93\x96sQ@'
p16
tp17
Rp18
ag3
(g7
S'-\xcb\xb3\x0c\xb8\xdcC@'
p19
tp20
Rp21
ag3
(g7
S'\x95\xd4Z\xde\xa4kA@'
p22
tp23
Rp24
ag3
(g7
S'\x1b-Y,.\xfc=@'
p25
tp26
Rp27
ag3
(g7
S"\x87T\xfa\x0c\xa2'9@"
p28
tp29
Rp30
asS'val_accuracy'
p31
(lp32
g3
(g4
(S'f4'
p33
I0
I1
tp34
Rp35
(I3
S'<'
p36
NNNI-1
I-1
I0
tp37
bS'&*~?'
p38
tp39
Rp40
ag3
(g35
S'~\\~?'
p41
tp42
Rp43
ag3
(g35
S'\xae_~?'
p44
tp45
Rp46
ag3
(g35
S'\x92\x8e~?'
p47
tp48
Rp49
ag3
(g35
S'\xbec~?'
p50
tp51
Rp52
ag3
(g35
S'+e~?'
p53
tp54
Rp55
ag3
(g35
S'\xcf\xa5~?'
p56
tp57
Rp58
asS'val_loss'
p59
(lp60
g3
(g7
S'\xa6I\xa6\x17-\x99\x85@'
p61
tp62
Rp63
ag3
(g7
S'\x96\xdb\xe5\x90\x1cqP@'
p64
tp65
Rp66
ag3
(g7
S'e\x91\x90V\n\xb1\x90@'
p67
tp68
Rp69
ag3
(g7
S'\xc1\xd7\xc5\x17]t\x8d@'
p70
tp71
Rp72
ag3
(g7
S'\x9d\xef:V\xe4\x8b\x89@'
p73
tp74
Rp75
ag3
(g7
S'n$1\xf2+\xa8\x85@'
p76
tp77
Rp78
ag3
(g7
S'64Na\xfd\xc8\x81@'
p79
tp80
Rp81
asS'accuracy'
p82
(lp83
g3
(g35
S']\xd9|?'
p84
tp85
Rp86
ag3
(g35
S'l-~?'
p87
tp88
Rp89
ag3
(g35
S"\x92'~?"
p90
tp91
Rp92
ag3
(g35
S'gM~?'
p93
tp94
Rp95
ag3
(g35
S'\x9d`~?'
p96
tp97
Rp98
ag3
(g35
S'Vt~?'
p99
tp100
Rp101
ag3
(g35
S'Pn~?'
p102
tp103
Rp104
as.