(dp0
S'loss'
p1
(lp2
cnumpy.core.multiarray
scalar
p3
(cnumpy
dtype
p4
(S'f8'
p5
I0
I1
tp6
Rp7
(I3
S'<'
p8
NNNI-1
I-1
I0
tp9
bS'\xf7\xd7\xb5S\xa8\x03\xd7@'
p10
tp11
Rp12
ag3
(g7
S'k\xa3\xd2\xf3\xbe\x03D@'
p13
tp14
Rp15
ag3
(g7
S'\x17\xda\xb0#k\x8eG@'
p16
tp17
Rp18
ag3
(g7
S'\xe1\x7f\xe0e\xc7\x81)@'
p19
tp20
Rp21
ag3
(g7
S'x\xba\xfe*<\xea^@'
p22
tp23
Rp24
ag3
(g7
S'\x96P\xad/\xd6\xc4\x83@'
p25
tp26
Rp27
ag3
(g7
S'\xc2*\xd6f#\x94w@'
p28
tp29
Rp30
asS'val_accuracy'
p31
(lp32
g3
(g4
(S'f4'
p33
I0
I1
tp34
Rp35
(I3
S'<'
p36
NNNI-1
I-1
I0
tp37
bS'N\xba~?'
p38
tp39
Rp40
ag3
(g35
S'0<\x7f?'
p41
tp42
Rp43
ag3
(g35
S'8U\x7f?'
p44
tp45
Rp46
ag3
(g35
S'\x1a[\x7f?'
p47
tp48
Rp49
ag3
(g35
S'6Z\x7f?'
p50
tp51
Rp52
ag3
(g35
S'\xb3U\x7f?'
p53
tp54
Rp55
ag3
(g35
S'\x19p\x7f?'
p56
tp57
Rp58
asS'val_loss'
p59
(lp60
g3
(g7
S'f\x00S\x86;\xc9\xe1@'
p61
tp62
Rp63
ag3
(g7
S'\x06{"\x02\x03\xbb\'@'
p64
tp65
Rp66
ag3
(g7
S'b\x96"/|@\xb3@'
p67
tp68
Rp69
ag3
(g7
S'u,\r\xed\x8dK\x91@'
p70
tp71
Rp72
ag3
(g7
S'\xbaK\xda\xdbg\x0e\xa9@'
p73
tp74
Rp75
ag3
(g7
S'\x90\x1d\xe6\xdc\x0e\x02\xfd@'
p76
tp77
Rp78
ag3
(g7
S'\xbeT\x0b\xe3x\xd5\xda@'
p79
tp80
Rp81
asS'accuracy'
p82
(lp83
g3
(g35
S'\xbeU~?'
p84
tp85
Rp86
ag3
(g35
S',\xf6~?'
p87
tp88
Rp89
ag3
(g35
S'\xc66\x7f?'
p90
tp91
Rp92
ag3
(g35
S'\xe2@\x7f?'
p93
tp94
Rp95
ag3
(g35
S'\xe1W\x7f?'
p96
tp97
Rp98
ag3
(g35
S'\x8a>\x7f?'
p99
tp100
Rp101
ag3
(g35
S'jI\x7f?'
p102
tp103
Rp104
as.