(dp0
S'loss'
p1
(lp2
cnumpy.core.multiarray
scalar
p3
(cnumpy
dtype
p4
(S'f8'
p5
I0
I1
tp6
Rp7
(I3
S'<'
p8
NNNI-1
I-1
I0
tp9
bS'S\x8cD\xd3\xad\x1e\x94?'
p10
tp11
Rp12
ag3
(g7
S']\xa9\x8d5\xad[\x88?'
p13
tp14
Rp15
ag3
(g7
S'\xe7Q\xe7%{ \x86?'
p16
tp17
Rp18
ag3
(g7
S"\x97\xb3Hsg'\x85?"
p19
tp20
Rp21
ag3
(g7
S'x\xdd\x06\x88;\x87\x84?'
p22
tp23
Rp24
ag3
(g7
S'\x15_g\xc1\x8c \x84?'
p25
tp26
Rp27
ag3
(g7
S'VE\xae/7\xd5\x83?'
p28
tp29
Rp30
ag3
(g7
S'\xcc\xd1\x10\x94\x1d\x9a\x83?'
p31
tp32
Rp33
ag3
(g7
S'\x83\x01Jta]\x83?'
p34
tp35
Rp36
ag3
(g7
S'EL\x99\xf5Z\x1d\x83?'
p37
tp38
Rp39
asS'val_accuracy'
p40
(lp41
g3
(g4
(S'f4'
p42
I0
I1
tp43
Rp44
(I3
S'<'
p45
NNNI-1
I-1
I0
tp46
bS'\xae\xe6~?'
p47
tp48
Rp49
ag3
(g44
S'\xf3-\x7f?'
p50
tp51
Rp52
ag3
(g44
S'\xb31\x7f?'
p53
tp54
Rp55
ag3
(g44
S'\x933\x7f?'
p56
tp57
Rp58
ag3
(g44
S'\x85R\x7f?'
p59
tp60
Rp61
ag3
(g44
S'Fe\x7f?'
p62
tp63
Rp64
ag3
(g44
S'&g\x7f?'
p65
tp66
Rp67
ag3
(g44
S'\xc6]\x7f?'
p68
tp69
Rp70
ag3
(g44
S'\xb7m\x7f?'
p71
tp72
Rp73
ag3
(g44
S'fc\x7f?'
p74
tp75
Rp76
asS'val_loss'
p77
(lp78
g3
(g7
S'\n\xa50\x82\xcc\x7f\x91?'
p79
tp80
Rp81
ag3
(g7
S'\x82%\xf87\x9e\x87\x87?'
p82
tp83
Rp84
ag3
(g7
S'o\xea\xf6\xc7\x80I\x88?'
p85
tp86
Rp87
ag3
(g7
S'\x1a\xa4AdgA\x86?'
p88
tp89
Rp90
ag3
(g7
S'|\xbc\xe7\x86\xbc\xe4\x86?'
p91
tp92
Rp93
ag3
(g7
S'\x95Qy\xf3R\x90\x83?'
p94
tp95
Rp96
ag3
(g7
S'\xd3/=\x87@\x0b\x82?'
p97
tp98
Rp99
ag3
(g7
S'[\xafUV\x0e\xb6\x82?'
p100
tp101
Rp102
ag3
(g7
S'\xec\xc4\xae\xb9\x0f\xe0\x81?'
p103
tp104
Rp105
ag3
(g7
S'b\x18\x06\x90\xd1\x90\x81?'
p106
tp107
Rp108
asS'accuracy'
p109
(lp110
g3
(g44
S'q\xb6~?'
p111
tp112
Rp113
ag3
(g44
S'O1\x7f?'
p114
tp115
Rp116
ag3
(g44
S'\xdbD\x7f?'
p117
tp118
Rp119
ag3
(g44
S'\xb2M\x7f?'
p120
tp121
Rp122
ag3
(g44
S'=S\x7f?'
p123
tp124
Rp125
ag3
(g44
S'sV\x7f?'
p126
tp127
Rp128
ag3
(g44
S'\x85Y\x7f?'
p129
tp130
Rp131
ag3
(g44
S'\x1d\\\x7f?'
p132
tp133
Rp134
ag3
(g44
S'\xb4^\x7f?'
p135
tp136
Rp137
ag3
(g44
S'q_\x7f?'
p138
tp139
Rp140
as.