(dp0
S'loss'
p1
(lp2
cnumpy.core.multiarray
scalar
p3
(cnumpy
dtype
p4
(S'f8'
p5
I0
I1
tp6
Rp7
(I3
S'<'
p8
NNNI-1
I-1
I0
tp9
bS'\xa6\xb6\xce\xd2\xc6\xd3\xd4?'
p10
tp11
Rp12
ag3
(g7
S'\xe6G\xd82\x01>\xc1?'
p13
tp14
Rp15
ag3
(g7
S'\xb8\xe2\xc62;\\\xba?'
p16
tp17
Rp18
ag3
(g7
S'\xa4\x8e\x9c(,3\xb7?'
p19
tp20
Rp21
ag3
(g7
S'\xd9&\x1e\xf2qU\xb5?'
p22
tp23
Rp24
ag3
(g7
S'\xaf\xccJ\x1e$-\xc1?'
p25
tp26
Rp27
ag3
(g7
S'\x1eM\xb2\xb7yZ\xb5?'
p28
tp29
Rp30
ag3
(g7
S'Qx\xdb\xa3\x99\x0f\xb2?'
p31
tp32
Rp33
ag3
(g7
S'5\x0e5\x7fK\xba\xb6?'
p34
tp35
Rp36
ag3
(g7
S'k0\x03s\xf2\xd7\xb1?'
p37
tp38
Rp39
ag3
(g7
S'CC\x88\x8c\x11t\xb0?'
p40
tp41
Rp42
ag3
(g7
S'\xc2Q\x02\xd42\x13\xb0?'
p43
tp44
Rp45
ag3
(g7
S'\xbb\xd9k\\\x15q\xaf?'
p46
tp47
Rp48
ag3
(g7
S'F:-x\x98\xe0\xae?'
p49
tp50
Rp51
ag3
(g7
S'.\xdb\xc4\xeb\xdf-\xae?'
p52
tp53
Rp54
ag3
(g7
S'\xb7X\xfa\\M^\xc0?'
p55
tp56
Rp57
ag3
(g7
S'\x02(2\xb7[\xd5\xbd?'
p58
tp59
Rp60
ag3
(g7
S'\xe5\xee\x18\xe8\x91\x9e\xb6?'
p61
tp62
Rp63
ag3
(g7
S'\x14T*C\xfbS\xb1?'
p64
tp65
Rp66
ag3
(g7
S'KEkzq\xf6\xac?'
p67
tp68
Rp69
asS'val_accuracy'
p70
(lp71
g3
(g4
(S'f4'
p72
I0
I1
tp73
Rp74
(I3
S'<'
p75
NNNI-1
I-1
I0
tp76
bS'\x98Ev?'
p77
tp78
Rp79
ag3
(g74
S'\xc99w?'
p80
tp81
Rp82
ag3
(g74
S'\xf1\x89x?'
p83
tp84
Rp85
ag3
(g74
S'\xe2\x93x?'
p86
tp87
Rp88
ag3
(g74
S'\xa2)y?'
p89
tp90
Rp91
ag3
(g74
S'RIy?'
p92
tp93
Rp94
ag3
(g74
S'\xc4\x87y?'
p95
tp96
Rp97
ag3
(g74
S'\x93\x93y?'
p98
tp99
Rp100
ag3
(g74
S'-\xc2y?'
p101
tp102
Rp103
ag3
(g74
S'\xe2\x93y?'
p104
tp105
Rp106
ag3
(g74
S'\xbd\xacy?'
p107
tp108
Rp109
ag3
(g74
S'\x86\x06z?'
p110
tp111
Rp112
ag3
(g74
S'|"z?'
p113
tp114
Rp115
ag3
(g74
S'K.z?'
p116
tp117
Rp118
ag3
(g74
S'F\\z?'
p119
tp120
Rp121
ag3
(g74
S'\xa7\x1bz?'
p122
tp123
Rp124
ag3
(g74
S'\xfbMz?'
p125
tp126
Rp127
ag3
(g74
S'\xdd\x81z?'
p128
tp129
Rp130
ag3
(g74
S'2\xb4z?'
p131
tp132
Rp133
ag3
(g74
S'\x14\x88z?'
p134
tp135
Rp136
asS'val_loss'
p137
(lp138
g3
(g7
S'\xf9\x04R/\x1d$\xc8?'
p139
tp140
Rp141
ag3
(g7
S'\x84\xfdV8\xa4i\xb9?'
p142
tp143
Rp144
ag3
(g7
S'\x89O Y\xdf!\xb7?'
p145
tp146
Rp147
ag3
(g7
S'#>\x81\n2\xe6\xb4?'
p148
tp149
Rp150
ag3
(g7
S'\xb3\x88O\x1d\xee\xc4\xb3?'
p151
tp152
Rp153
ag3
(g7
S'%\xe7e=\xe9\xc6\xb7?'
p154
tp155
Rp156
ag3
(g7
S'\xef`\xbfRN\x9c\xb1?'
p157
tp158
Rp159
ag3
(g7
S'f\x11\x9fN\xba\x91\xb1?'
p160
tp161
Rp162
ag3
(g7
S'\xba\x83\xfd>\xf4j\xb3?'
p163
tp164
Rp165
ag3
(g7
S' \x95\x9cC*(\xb1?'
p166
tp167
Rp168
ag3
(g7
S'kchE\xbf\xc9\xb0?'
p169
tp170
Rp171
ag3
(g7
S'\x8e\xa1\xe9\x08\xf2\x93\xaf?'
p172
tp173
Rp174
ag3
(g7
S"\xb8\xda\x18\x01\xc4'\xb0?"
p175
tp176
Rp177
ag3
(g7
S'f\x11\x9f\xa8\xfc\xa0\xad?'
p178
tp179
Rp180
ag3
(g7
S'\n\xa4\x92\xb7m\x10\xad?'
p181
tp182
Rp183
ag3
(g7
S'24\xdd\xa6ER\xbd?'
p184
tp185
Rp186
ag3
(g7
S'\x1bC\xd3\x01\x89q\xb6?'
p187
tp188
Rp189
ag3
(g7
S'\x9f@*\xe44\x87\xb1?'
p190
tp191
Rp192
ag3
(g7
S' \x95\x9c\x9b\xcf\n\xad?'
p193
tp194
Rp195
ag3
(g7
S'\\m\x0c\t\xfb\xfc\xab?'
p196
tp197
Rp198
asS'accuracy'
p199
(lp200
g3
(g74
S'\x97\xe8k?'
p201
tp202
Rp203
ag3
(g74
S'\xcc;v?'
p204
tp205
Rp206
ag3
(g74
S'\xdb\x89w?'
p207
tp208
Rp209
ag3
(g74
S'\xb3Hx?'
p210
tp211
Rp212
ag3
(g74
S'\xcc\xc0x?'
p213
tp214
Rp215
ag3
(g74
S'\xa0\x08y?'
p216
tp217
Rp218
ag3
(g74
S'\x80gy?'
p219
tp220
Rp221
ag3
(g74
S'\xd8\x8dy?'
p222
tp223
Rp224
ag3
(g74
S'r\xb2y?'
p225
tp226
Rp227
ag3
(g74
S'\x0e\xf5y?'
p228
tp229
Rp230
ag3
(g74
S'Z\tz?'
p231
tp232
Rp233
ag3
(g74
S"'#z?"
p234
tp235
Rp236
ag3
(g74
S'\xe6=z?'
p237
tp238
Rp239
ag3
(g74
S'\xacPz?'
p240
tp241
Rp242
ag3
(g74
S'qcz?'
p243
tp244
Rp245
ag3
(g74
S'<Pz?'
p246
tp247
Rp248
ag3
(g74
S"'hz?"
p249
tp250
Rp251
ag3
(g74
S'C\x83z?'
p252
tp253
Rp254
ag3
(g74
S'\x8b\x9bz?'
p255
tp256
Rp257
ag3
(g74
S'M\xadz?'
p258
tp259
Rp260
as.