(dp0
S'loss'
p1
(lp2
cnumpy.core.multiarray
scalar
p3
(cnumpy
dtype
p4
(S'f8'
p5
I0
I1
tp6
Rp7
(I3
S'<'
p8
NNNI-1
I-1
I0
tp9
bS'[_9Y\xe9G\xa7?'
p10
tp11
Rp12
ag3
(g7
S'g&\\#\x7f"\xa1?'
p13
tp14
Rp15
ag3
(g7
S'do\x9fT\x1d\xf0\x9f?'
p16
tp17
Rp18
ag3
(g7
S'7\xf1\x8d\xe0\xddy\x9f?'
p19
tp20
Rp21
ag3
(g7
S'\x02\xefo\xf57\xa3\x9e?'
p22
tp23
Rp24
ag3
(g7
S'xK\xf8\xa9\x1c\x18\x9e?'
p25
tp26
Rp27
ag3
(g7
S'Q_\xd3Bl\xa4\x9d?'
p28
tp29
Rp30
ag3
(g7
S'P\x96\xf67\x05t\x9d?'
p31
tp32
Rp33
ag3
(g7
S"\xe3\xb0*\xfc'a\x9d?"
p34
tp35
Rp36
ag3
(g7
S'\x19C\xe2\x8b\x89Y\x9d?'
p37
tp38
Rp39
ag3
(g7
S'\xd6\xc3tm/\x19\x9e?'
p40
tp41
Rp42
ag3
(g7
S'\x80\xff7\x03\xfa\xa2\x9d?'
p43
tp44
Rp45
asS'val_accuracy'
p46
(lp47
g3
(g4
(S'f4'
p48
I0
I1
tp49
Rp50
(I3
S'<'
p51
NNNI-1
I-1
I0
tp52
bS'`\xd2}?'
p53
tp54
Rp55
ag3
(g50
S'2\x1b~?'
p56
tp57
Rp58
ag3
(g50
S'J=~?'
p59
tp60
Rp61
ag3
(g50
S'\xe87~?'
p62
tp63
Rp64
ag3
(g50
S';I~?'
p65
tp66
Rp67
ag3
(g50
S'\xaa_~?'
p68
tp69
Rp70
ag3
(g50
S'\xfcn~?'
p71
tp72
Rp73
ag3
(g50
S'\x82r~?'
p74
tp75
Rp76
ag3
(g50
S'\xb5j~?'
p77
tp78
Rp79
ag3
(g50
S'\x15f~?'
p80
tp81
Rp82
ag3
(g50
S'\xb1V~?'
p83
tp84
Rp85
ag3
(g50
S'\x19"~?'
p86
tp87
Rp88
asS'val_loss'
p89
(lp90
g3
(g7
S'\xdb"\xd3\xe6\xcbx\xa0?'
p91
tp92
Rp93
ag3
(g7
S'\xda\xc8\xca1\xb2\xc8\x9d?'
p94
tp95
Rp96
ag3
(g7
S'Q\x88\xbdhy?\x9c?'
p97
tp98
Rp99
ag3
(g7
S'3J\x11\xf0:\xfa\x9b?'
p100
tp101
Rp102
ag3
(g7
S'\xf5\xcbY?\xa2\xa5\x9b?'
p103
tp104
Rp105
ag3
(g7
S'\x91\xe7\t\x17\xd2?\x9b?'
p106
tp107
Rp108
ag3
(g7
S'#\x00\xd6\x00\xf9{\x9a?'
p109
tp110
Rp111
ag3
(g7
S'\xde2KR$\xec\x9a?'
p112
tp113
Rp114
ag3
(g7
S'9=}\xb3\x07\xa0\x9a?'
p115
tp116
Rp117
ag3
(g7
S'e\x11\x14\x86\x04\x9b\x9a?'
p118
tp119
Rp120
ag3
(g7
S'\xa2\xe5U$\xa9\x05\x9b?'
p121
tp122
Rp123
ag3
(g7
S'\xae\xc7o\x01Ci\x9e?'
p124
tp125
Rp126
asS'accuracy'
p127
(lp128
g3
(g50
S'\xb4\x0c}?'
p129
tp130
Rp131
ag3
(g50
S'\xd2\xb5}?'
p132
tp133
Rp134
ag3
(g50
S'C\xe3}?'
p135
tp136
Rp137
ag3
(g50
S'V\xf5}?'
p138
tp139
Rp140
ag3
(g50
S'\xc5\x06~?'
p141
tp142
Rp143
ag3
(g50
S'\xad\x1b~?'
p144
tp145
Rp146
ag3
(g50
S"\x91'~?"
p147
tp148
Rp149
ag3
(g50
S'[.~?'
p150
tp151
Rp152
ag3
(g50
S';4~?'
p153
tp154
Rp155
ag3
(g50
S'\x960~?'
p156
tp157
Rp158
ag3
(g50
S'\xde\x17~?'
p159
tp160
Rp161
ag3
(g50
S'\xe6(~?'
p162
tp163
Rp164
as.